target datalayout = "e-m:e-p270:32:32-p271:32:32-p272:64:64-i64:64-i128:128-f80:128-n8:16:32:64-S128"
target triple = "x86_64-pc-linux-gnu"

%struct.ZSTD_customMem = type { ptr, ptr, ptr }
%struct.ZSTD_frameParameters = type { i32, i32, i32 }
%struct.ZSTD_compressionParameters = type { i32, i32, i32, i32, i32, i32, i32 }
%struct.ZSTD_CCtx_s = type { i32, i32, i32, %struct.ZSTD_CCtx_params_s, %struct.ZSTD_CCtx_params_s, %struct.ZSTD_CCtx_params_s, i32, i64, %struct.ZSTD_cwksp, i64, i64, i64, i64, %struct.XXH64_state_s, %struct.ZSTD_customMem, ptr, i64, %struct.SeqCollector, i32, i32, %struct.seqStore_t, %struct.ldmState_t, ptr, i64, %struct.rawSeqStore_t, %struct.ZSTD_blockState_t, ptr, i32, ptr, i64, i64, i64, i64, ptr, i64, i64, i64, i32, i32, %struct.ZSTD_inBuffer_s, i64, i64, %struct.ZSTD_localDict, ptr, %struct.ZSTD_prefixDict_s, i64, %struct.ZSTD_blockSplitCtx, %struct.ZSTD_externalMatchCtx }
%struct.ZSTD_CCtx_params_s = type { i32, %struct.ZSTD_compressionParameters, %struct.ZSTD_frameParameters, i32, i32, i64, i32, i32, i32, i32, i64, i32, i32, %struct.ldmParams_t, i32, i32, i32, i32, i32, i32, i32, i32, %struct.ZSTD_customMem, i32, i32, i32, i64, i32 }
%struct.ldmParams_t = type { i32, i32, i32, i32, i32, i32 }
%struct.ZSTD_cwksp = type { ptr, ptr, ptr, ptr, ptr, ptr, ptr, i8, i32, i32, i32 }
%struct.XXH64_state_s = type { i64, [4 x i64], [4 x i64], i32, i32, i64 }
%struct.SeqCollector = type { i32, ptr, i64, i64 }
%struct.seqStore_t = type { ptr, ptr, ptr, ptr, ptr, ptr, ptr, i64, i64, i32, i32 }
%struct.ldmState_t = type { %struct.ZSTD_window_t, ptr, i32, ptr, [64 x i64], [64 x %struct.ldmMatchCandidate_t] }
%struct.ZSTD_window_t = type { ptr, ptr, ptr, i32, i32, i32 }
%struct.ldmMatchCandidate_t = type { ptr, i32, i32, ptr }
%struct.rawSeqStore_t = type { ptr, i64, i64, i64, i64 }
%struct.ZSTD_blockState_t = type { ptr, ptr, %struct.ZSTD_matchState_t }
%struct.ZSTD_matchState_t = type { %struct.ZSTD_window_t, i32, i32, i32, i32, ptr, [8 x i32], i64, i32, ptr, ptr, ptr, i32, i32, %struct.optState_t, ptr, %struct.ZSTD_compressionParameters, ptr, i32, i32 }
%struct.optState_t = type { ptr, ptr, ptr, ptr, ptr, ptr, i32, i32, i32, i32, i32, i32, i32, i32, i32, ptr, i32 }
%struct.ZSTD_inBuffer_s = type { ptr, i64, i64 }
%struct.ZSTD_localDict = type { ptr, ptr, i64, i32, ptr }
%struct.ZSTD_prefixDict_s = type { ptr, i64, i32 }
%struct.ZSTD_blockSplitCtx = type { %struct.seqStore_t, %struct.seqStore_t, %struct.seqStore_t, %struct.seqStore_t, %struct.seqStore_t, [196 x i32], %struct.ZSTD_entropyCTablesMetadata_t }
%struct.ZSTD_entropyCTablesMetadata_t = type { %struct.ZSTD_hufCTablesMetadata_t, %struct.ZSTD_fseCTablesMetadata_t }
%struct.ZSTD_hufCTablesMetadata_t = type { i32, [128 x i8], i64 }
%struct.ZSTD_fseCTablesMetadata_t = type { i32, i32, i32, [133 x i8], i64, i64 }
%struct.ZSTD_externalMatchCtx = type { ptr, ptr, ptr, i64 }

; Function Attrs: nounwind uwtable
define dso_local i64 @ZSTD_CCtx_refThreadPool(ptr noundef %0, ptr noundef %1) #0 {
  %3 = alloca i64, align 8
  %4 = alloca ptr, align 8
  %5 = alloca ptr, align 8
  store ptr %0, ptr %4, align 8
  store ptr %1, ptr %5, align 8
  %6 = load ptr, ptr %4, align 8
  %7 = getelementptr inbounds %struct.ZSTD_CCtx_s, ptr %6, i32 0, i32 37
  %8 = load i32, ptr %7, align 8
  %9 = icmp ne i32 %8, 0
  br i1 %9, label %10, label %11

10:                                               ; preds = %2
  store i64 -60, ptr %3, align 8
  br label %15

11:                                               ; preds = %2
  %12 = load ptr, ptr %5, align 8
  %13 = load ptr, ptr %4, align 8
  %14 = getelementptr inbounds %struct.ZSTD_CCtx_s, ptr %13, i32 0, i32 15
  store ptr %12, ptr %14, align 8
  store i64 0, ptr %3, align 8
  br label %15

15:                                               ; preds = %11, %10
  %16 = load i64, ptr %3, align 8
  ret i64 %16
}